target datalayout = "e-m:e-p270:32:32-p271:32:32-p272:64:64-i64:64-i128:128-f80:128-n8:16:32:64-S128"
target triple = "x86_64-pc-linux-gnu"

%struct.JNINativeInterface_ = type { ptr, ptr, ptr, ptr, ptr, ptr, ptr, ptr, ptr, ptr, ptr, ptr, ptr, ptr, ptr, ptr, ptr, ptr, ptr, ptr, ptr, ptr, ptr, ptr, ptr, ptr, ptr, ptr, ptr, ptr, ptr, ptr, ptr, ptr, ptr, ptr, ptr, ptr, ptr, ptr, ptr, ptr, ptr, ptr, ptr, ptr, ptr, ptr, ptr, ptr, ptr, ptr, ptr, ptr, ptr, ptr, ptr, ptr, ptr, ptr, ptr, ptr, ptr, ptr, ptr, ptr, ptr, ptr, ptr, ptr, ptr, ptr, ptr, ptr, ptr, ptr, ptr, ptr, ptr, ptr, ptr, ptr, ptr, ptr, ptr, ptr, ptr, ptr, ptr, ptr, ptr, ptr, ptr, ptr, ptr, ptr, ptr, ptr, ptr, ptr, ptr, ptr, ptr, ptr, ptr, ptr, ptr, ptr, ptr, ptr, ptr, ptr, ptr, ptr, ptr, ptr, ptr, ptr, ptr, ptr, ptr, ptr, ptr, ptr, ptr, ptr, ptr, ptr, ptr, ptr, ptr, ptr, ptr, ptr, ptr, ptr, ptr, ptr, ptr, ptr, ptr, ptr, ptr, ptr, ptr, ptr, ptr, ptr, ptr, ptr, ptr, ptr, ptr, ptr, ptr, ptr, ptr, ptr, ptr, ptr, ptr, ptr, ptr, ptr, ptr, ptr, ptr, ptr, ptr, ptr, ptr, ptr, ptr, ptr, ptr, ptr, ptr, ptr, ptr, ptr, ptr, ptr, ptr, ptr, ptr, ptr, ptr, ptr, ptr, ptr, ptr, ptr, ptr, ptr, ptr, ptr, ptr, ptr, ptr, ptr, ptr, ptr, ptr, ptr, ptr, ptr, ptr, ptr, ptr, ptr, ptr, ptr, ptr, ptr, ptr, ptr, ptr, ptr, ptr, ptr, ptr, ptr, ptr, ptr, ptr, ptr, ptr, ptr, ptr, ptr, ptr, ptr, ptr, ptr, ptr }
%struct.CK_AES_CTR_PARAMS = type { i64, [16 x i8] }

@.str.17 = private unnamed_addr constant [2 x i8] c"J\00", align 1
@.str.24 = private unnamed_addr constant [3 x i8] c"[B\00", align 1
@.str.51 = private unnamed_addr constant [46 x i8] c"sun/security/pkcs11/wrapper/CK_AES_CTR_PARAMS\00", align 1
@.str.52 = private unnamed_addr constant [14 x i8] c"ulCounterBits\00", align 1
@.str.53 = private unnamed_addr constant [3 x i8] c"cb\00", align 1

; Function Attrs: nounwind uwtable
define hidden ptr @jAesCtrParamsToCKAesCtrParamPtr(ptr noundef %0, ptr noundef %1, ptr noundef %2) #0 {
  %4 = alloca ptr, align 8
  %5 = alloca ptr, align 8
  %6 = alloca ptr, align 8
  %7 = alloca ptr, align 8
  %8 = alloca ptr, align 8
  %9 = alloca ptr, align 8
  %10 = alloca ptr, align 8
  %11 = alloca i64, align 8
  %12 = alloca ptr, align 8
  %13 = alloca ptr, align 8
  %14 = alloca i64, align 8
  store ptr %0, ptr %5, align 8
  store ptr %1, ptr %6, align 8
  store ptr %2, ptr %7, align 8
  store ptr null, ptr %13, align 8
  %15 = load ptr, ptr %7, align 8
  %16 = icmp ne ptr %15, null
  br i1 %16, label %17, label %19

17:                                               ; preds = %3
  %18 = load ptr, ptr %7, align 8
  store i64 0, ptr %18, align 8
  br label %19

19:                                               ; preds = %17, %3
  %20 = load ptr, ptr %5, align 8
  %21 = load ptr, ptr %20, align 8
  %22 = getelementptr inbounds %struct.JNINativeInterface_, ptr %21, i32 0, i32 6
  %23 = load ptr, ptr %22, align 8
  %24 = load ptr, ptr %5, align 8
  %25 = call ptr %23(ptr noundef %24, ptr noundef @.str.51)
  store ptr %25, ptr %9, align 8
  %26 = load ptr, ptr %9, align 8
  %27 = icmp eq ptr %26, null
  br i1 %27, label %28, label %29

28:                                               ; preds = %19
  store ptr null, ptr %4, align 8
  br label %118

29:                                               ; preds = %19
  %30 = load ptr, ptr %5, align 8
  %31 = load ptr, ptr %30, align 8
  %32 = getelementptr inbounds %struct.JNINativeInterface_, ptr %31, i32 0, i32 32
  %33 = load ptr, ptr %32, align 8
  %34 = load ptr, ptr %5, align 8
  %35 = load ptr, ptr %6, align 8
  %36 = load ptr, ptr %9, align 8
  %37 = call zeroext i8 %33(ptr noundef %34, ptr noundef %35, ptr noundef %36)
  %38 = icmp ne i8 %37, 0
  br i1 %38, label %40, label %39

39:                                               ; preds = %29
  store ptr null, ptr %4, align 8
  br label %118

40:                                               ; preds = %29
  %41 = load ptr, ptr %5, align 8
  %42 = load ptr, ptr %41, align 8
  %43 = getelementptr inbounds %struct.JNINativeInterface_, ptr %42, i32 0, i32 94
  %44 = load ptr, ptr %43, align 8
  %45 = load ptr, ptr %5, align 8
  %46 = load ptr, ptr %9, align 8
  %47 = call ptr %44(ptr noundef %45, ptr noundef %46, ptr noundef @.str.52, ptr noundef @.str.17)
  store ptr %47, ptr %10, align 8
  %48 = load ptr, ptr %10, align 8
  %49 = icmp eq ptr %48, null
  br i1 %49, label %50, label %51

50:                                               ; preds = %40
  store ptr null, ptr %4, align 8
  br label %118

51:                                               ; preds = %40
  %52 = load ptr, ptr %5, align 8
  %53 = load ptr, ptr %52, align 8
  %54 = getelementptr inbounds %struct.JNINativeInterface_, ptr %53, i32 0, i32 101
  %55 = load ptr, ptr %54, align 8
  %56 = load ptr, ptr %5, align 8
  %57 = load ptr, ptr %6, align 8
  %58 = load ptr, ptr %10, align 8
  %59 = call i64 %55(ptr noundef %56, ptr noundef %57, ptr noundef %58)
  store i64 %59, ptr %11, align 8
  %60 = load ptr, ptr %5, align 8
  %61 = load ptr, ptr %60, align 8
  %62 = getelementptr inbounds %struct.JNINativeInterface_, ptr %61, i32 0, i32 94
  %63 = load ptr, ptr %62, align 8
  %64 = load ptr, ptr %5, align 8
  %65 = load ptr, ptr %9, align 8
  %66 = call ptr %63(ptr noundef %64, ptr noundef %65, ptr noundef @.str.53, ptr noundef @.str.24)
  store ptr %66, ptr %10, align 8
  %67 = load ptr, ptr %10, align 8
  %68 = icmp eq ptr %67, null
  br i1 %68, label %69, label %70

69:                                               ; preds = %51
  store ptr null, ptr %4, align 8
  br label %118

70:                                               ; preds = %51
  %71 = load ptr, ptr %5, align 8
  %72 = load ptr, ptr %71, align 8
  %73 = getelementptr inbounds %struct.JNINativeInterface_, ptr %72, i32 0, i32 95
  %74 = load ptr, ptr %73, align 8
  %75 = load ptr, ptr %5, align 8
  %76 = load ptr, ptr %6, align 8
  %77 = load ptr, ptr %10, align 8
  %78 = call ptr %74(ptr noundef %75, ptr noundef %76, ptr noundef %77)
  store ptr %78, ptr %12, align 8
  %79 = call noalias ptr @calloc(i64 noundef 1, i64 noundef 24) #6
  store ptr %79, ptr %8, align 8
  %80 = load ptr, ptr %8, align 8
  %81 = icmp eq ptr %80, null
  br i1 %81, label %82, label %84

82:                                               ; preds = %70
  %83 = load ptr, ptr %5, align 8
  call void @p11ThrowOutOfMemoryError(ptr noundef %83, ptr noundef null)
  store ptr null, ptr %4, align 8
  br label %118

84:                                               ; preds = %70
  %85 = load ptr, ptr %5, align 8
  %86 = load ptr, ptr %12, align 8
  call void @jByteArrayToCKByteArray(ptr noundef %85, ptr noundef %86, ptr noundef %13, ptr noundef %14)
  %87 = load ptr, ptr %5, align 8
  %88 = load ptr, ptr %87, align 8
  %89 = getelementptr inbounds %struct.JNINativeInterface_, ptr %88, i32 0, i32 228
  %90 = load ptr, ptr %89, align 8
  %91 = load ptr, ptr %5, align 8
  %92 = call zeroext i8 %90(ptr noundef %91)
  %93 = zext i8 %92 to i32
  %94 = icmp ne i32 %93, 0
  br i1 %94, label %98, label %95

95:                                               ; preds = %84
  %96 = load i64, ptr %14, align 8
  %97 = icmp ne i64 %96, 16
  br i1 %97, label %98, label %99

98:                                               ; preds = %95, %84
  br label %115

99:                                               ; preds = %95
  %100 = load ptr, ptr %8, align 8
  %101 = getelementptr inbounds %struct.CK_AES_CTR_PARAMS, ptr %100, i32 0, i32 1
  %102 = getelementptr inbounds [16 x i8], ptr %101, i64 0, i64 0
  %103 = load ptr, ptr %13, align 8
  %104 = load i64, ptr %14, align 8
  call void @llvm.memcpy.p0.p0.i64(ptr align 8 %102, ptr align 1 %103, i64 %104, i1 false)
  %105 = load ptr, ptr %13, align 8
  call void @free(ptr noundef %105) #7
  %106 = load i64, ptr %11, align 8
  %107 = load ptr, ptr %8, align 8
  %108 = getelementptr inbounds %struct.CK_AES_CTR_PARAMS, ptr %107, i32 0, i32 0
  store i64 %106, ptr %108, align 8
  %109 = load ptr, ptr %7, align 8
  %110 = icmp ne ptr %109, null
  br i1 %110, label %111, label %113

111:                                              ; preds = %99
  %112 = load ptr, ptr %7, align 8
  store i64 24, ptr %112, align 8
  br label %113

113:                                              ; preds = %111, %99
  %114 = load ptr, ptr %8, align 8
  store ptr %114, ptr %4, align 8
  br label %118

115:                                              ; preds = %98
  %116 = load ptr, ptr %13, align 8
  call void @free(ptr noundef %116) #7
  %117 = load ptr, ptr %8, align 8
  call void @free(ptr noundef %117) #7
  store ptr null, ptr %4, align 8
  br label %118

118:                                              ; preds = %115, %113, %82, %69, %50, %39, %28
  %119 = load ptr, ptr %4, align 8
  ret ptr %119
}