; Function Attrs: nounwind uwtable
define hidden noundef ptr @jAesCtrParamsToCKAesCtrParamPtr(ptr noundef %0, ptr noundef %1, ptr noundef writeonly %2) local_unnamed_addr #0 {
  %4 = alloca ptr, align 8
  %5 = alloca i64, align 8
  store ptr null, ptr %4, align 8
  %.not = icmp eq ptr %2, null
  br i1 %.not, label %7, label %6

6:                                                ; preds = %3
  store i64 0, ptr %2, align 8
  br label %7

7:                                                ; preds = %6, %3
  %8 = load ptr, ptr %0, align 8
  %9 = getelementptr inbounds i8, ptr %8, i64 48
  %10 = load ptr, ptr %9, align 8
  %11 = tail call ptr %10(ptr noundef nonnull %0, ptr noundef nonnull @.str.51) #8
  %12 = icmp eq ptr %11, null
  br i1 %12, label %56, label %13

13:                                               ; preds = %7
  %14 = load ptr, ptr %0, align 8
  %15 = getelementptr inbounds i8, ptr %14, i64 256
  %16 = load ptr, ptr %15, align 8
  %17 = tail call zeroext i8 %16(ptr noundef nonnull %0, ptr noundef %1, ptr noundef nonnull %11) #8
  %.not45 = icmp eq i8 %17, 0
  br i1 %.not45, label %56, label %18

18:                                               ; preds = %13
  %19 = load ptr, ptr %0, align 8
  %20 = getelementptr inbounds i8, ptr %19, i64 752
  %21 = load ptr, ptr %20, align 8
  %22 = tail call ptr %21(ptr noundef nonnull %0, ptr noundef nonnull %11, ptr noundef nonnull @.str.52, ptr noundef nonnull @.str.17) #8
  %23 = icmp eq ptr %22, null
  br i1 %23, label %56, label %24

24:                                               ; preds = %18
  %25 = load ptr, ptr %0, align 8
  %26 = getelementptr inbounds i8, ptr %25, i64 808
  %27 = load ptr, ptr %26, align 8
  %28 = tail call i64 %27(ptr noundef nonnull %0, ptr noundef %1, ptr noundef nonnull %22) #8
  %29 = load ptr, ptr %0, align 8
  %30 = getelementptr inbounds i8, ptr %29, i64 752
  %31 = load ptr, ptr %30, align 8
  %32 = tail call ptr %31(ptr noundef nonnull %0, ptr noundef nonnull %11, ptr noundef nonnull @.str.53, ptr noundef nonnull @.str.24) #8
  %33 = icmp eq ptr %32, null
  br i1 %33, label %56, label %34

34:                                               ; preds = %24
  %35 = load ptr, ptr %0, align 8
  %36 = getelementptr inbounds i8, ptr %35, i64 760
  %37 = load ptr, ptr %36, align 8
  %38 = tail call ptr %37(ptr noundef nonnull %0, ptr noundef %1, ptr noundef nonnull %32) #8
  %39 = tail call noalias dereferenceable_or_null(24) ptr @calloc(i64 noundef 1, i64 noundef 24) #9
  %40 = icmp eq ptr %39, null
  br i1 %40, label %41, label %42

41:                                               ; preds = %34
  tail call void @p11ThrowOutOfMemoryError(ptr noundef nonnull %0, ptr noundef null) #8
  br label %56

42:                                               ; preds = %34
  call void @jByteArrayToCKByteArray(ptr noundef nonnull %0, ptr noundef %38, ptr noundef nonnull %4, ptr noundef nonnull %5) #8
  %43 = load ptr, ptr %0, align 8
  %44 = getelementptr inbounds i8, ptr %43, i64 1824
  %45 = load ptr, ptr %44, align 8
  %46 = call zeroext i8 %45(ptr noundef nonnull %0) #8
  %47 = icmp ne i8 %46, 0
  %48 = load i64, ptr %5, align 8
  %49 = icmp ne i64 %48, 16
  %or.cond = select i1 %47, i1 true, i1 %49
  br i1 %or.cond, label %54, label %50

50:                                               ; preds = %42
  %51 = getelementptr inbounds i8, ptr %39, i64 8
  %52 = load ptr, ptr %4, align 8
  call void @llvm.memcpy.p0.p0.i64(ptr noundef nonnull align 8 dereferenceable(16) %51, ptr noundef nonnull align 1 dereferenceable(16) %52, i64 16, i1 false)
  call void @free(ptr noundef %52) #8
  store i64 %28, ptr %39, align 8
  br i1 %.not, label %56, label %53

53:                                               ; preds = %50
  store i64 24, ptr %2, align 8
  br label %56

54:                                               ; preds = %42
  %55 = load ptr, ptr %4, align 8
  call void @free(ptr noundef %55) #8
  call void @free(ptr noundef nonnull %39) #8
  br label %56

56:                                               ; preds = %50, %53, %24, %18, %13, %7, %54, %41
  %.0 = phi ptr [ null, %41 ], [ null, %54 ], [ null, %7 ], [ null, %13 ], [ null, %18 ], [ null, %24 ], [ %39, %53 ], [ %39, %50 ]
  ret ptr %.0
}